; Function Attrs: mustprogress uwtable
define hidden void @_ZN2cv3hal12cpu_baseline9absdiff8sEPKamS3_mPamii(ptr nocapture noundef readonly %0, i64 noundef %1, ptr nocapture noundef readonly %2, i64 noundef %3, ptr nocapture noundef writeonly %4, i64 noundef %5, i32 noundef %6, i32 noundef %7) local_unnamed_addr #0 personality ptr @__gxx_personality_v0 {
  %9 = alloca %"class.cv::utils::trace::details::Region", align 8
  call void @_ZN2cv5utils5trace7details6RegionC1ERKNS3_21LocationStaticStorageE(ptr noundef nonnull align 8 dereferenceable(12) %9, ptr noundef nonnull align 8 dereferenceable(32) @_ZZN2cv3hal12cpu_baseline9absdiff8sEPKamS3_mPamiiE25__cv_trace_location_fn547)
  %.not23.i = icmp ne i32 %7, 0
  %10 = icmp sgt i32 %6, 0
  %or.cond.i = and i1 %10, %.not23.i
  br i1 %or.cond.i, label %.preheader.us.preheader.i, label %_ZN2cv3hal12cpu_baselineL8bin_loopINS1_10op_absdiffEaNS_12hal_baseline5v_regIaLi16EEEEEvPKT0_mS9_mPS7_mii.exit

.preheader.us.preheader.i:                        ; preds = %8
  %wide.trip.count.i = zext nneg i32 %6 to i64
  br label %.preheader.us.i

.preheader.us.i:                                  ; preds = %._crit_edge.us.i, %.preheader.us.preheader.i
  %.in.i = phi i32 [ %23, %._crit_edge.us.i ], [ %7, %.preheader.us.preheader.i ]
  %.01926.us.i = phi ptr [ %24, %._crit_edge.us.i ], [ %0, %.preheader.us.preheader.i ]
  %.02025.us.i = phi ptr [ %26, %._crit_edge.us.i ], [ %4, %.preheader.us.preheader.i ]
  %.02124.us.i = phi ptr [ %25, %._crit_edge.us.i ], [ %2, %.preheader.us.preheader.i ]
  br label %11

11:                                               ; preds = %11, %.preheader.us.i
  %indvars.iv.i = phi i64 [ 0, %.preheader.us.i ], [ %indvars.iv.next.i, %11 ]
  %12 = getelementptr inbounds i8, ptr %.01926.us.i, i64 %indvars.iv.i
  %13 = load i8, ptr %12, align 1
  %14 = getelementptr inbounds i8, ptr %.02124.us.i, i64 %indvars.iv.i
  %15 = load i8, ptr %14, align 1
  %16 = sext i8 %13 to i32
  %17 = sext i8 %15 to i32
  %18 = sub nsw i32 %16, %17
  %19 = call i32 @llvm.abs.i32(i32 %18, i1 true)
  %20 = call i32 @llvm.umin.i32(i32 %19, i32 127)
  %21 = trunc nuw nsw i32 %20 to i8
  %22 = getelementptr inbounds i8, ptr %.02025.us.i, i64 %indvars.iv.i
  store i8 %21, ptr %22, align 1
  %indvars.iv.next.i = add nuw nsw i64 %indvars.iv.i, 1
  %exitcond.not.i = icmp eq i64 %indvars.iv.next.i, %wide.trip.count.i
  br i1 %exitcond.not.i, label %._crit_edge.us.i, label %11, !llvm.loop !67

._crit_edge.us.i:                                 ; preds = %11
  %23 = add nsw i32 %.in.i, -1
  %24 = getelementptr inbounds i8, ptr %.01926.us.i, i64 %1
  %25 = getelementptr inbounds i8, ptr %.02124.us.i, i64 %3
  %26 = getelementptr inbounds i8, ptr %.02025.us.i, i64 %5
  %.not.us.i = icmp eq i32 %23, 0
  br i1 %.not.us.i, label %_ZN2cv3hal12cpu_baselineL8bin_loopINS1_10op_absdiffEaNS_12hal_baseline5v_regIaLi16EEEEEvPKT0_mS9_mPS7_mii.exit, label %.preheader.us.i, !llvm.loop !68

_ZN2cv3hal12cpu_baselineL8bin_loopINS1_10op_absdiffEaNS_12hal_baseline5v_regIaLi16EEEEEvPKT0_mS9_mPS7_mii.exit: ; preds = %._crit_edge.us.i, %8
  %27 = getelementptr inbounds i8, ptr %9, i64 8
  %28 = load i32, ptr %27, align 8
  %.not.i = icmp eq i32 %28, 0
  br i1 %.not.i, label %_ZN2cv5utils5trace7details6RegionD2Ev.exit, label %29

29:                                               ; preds = %_ZN2cv3hal12cpu_baselineL8bin_loopINS1_10op_absdiffEaNS_12hal_baseline5v_regIaLi16EEEEEvPKT0_mS9_mPS7_mii.exit
  invoke void @_ZN2cv5utils5trace7details6Region7destroyEv(ptr noundef nonnull align 8 dereferenceable(12) %9)
          to label %_ZN2cv5utils5trace7details6RegionD2Ev.exit unwind label %30

30:                                               ; preds = %29
  %31 = landingpad { ptr, i32 }
          catch ptr null
  %32 = extractvalue { ptr, i32 } %31, 0
  call void @__clang_call_terminate(ptr %32) #11
  unreachable

_ZN2cv5utils5trace7details6RegionD2Ev.exit:       ; preds = %_ZN2cv3hal12cpu_baselineL8bin_loopINS1_10op_absdiffEaNS_12hal_baseline5v_regIaLi16EEEEEvPKT0_mS9_mPS7_mii.exit, %29
  ret void
}